; Function Attrs: mustprogress uwtable
define void @_ZN5arrow8internal9SetEnvVarERKNSt7__cxx1112basic_stringIcSt11char_traitsIcESaIcEEES8_(ptr dead_on_unwind noalias writable sret(%"class.arrow::Status") align 8 %0, ptr noundef nonnull readonly align 8 captures(none) dereferenceable(32) %1, ptr noundef nonnull readonly align 8 captures(none) dereferenceable(32) %2) local_unnamed_addr #3 {
  %4 = load ptr, ptr %1, align 8, !tbaa !11
  %5 = load ptr, ptr %2, align 8, !tbaa !11
  tail call void @llvm.experimental.noalias.scope.decl(metadata !513)
  %6 = tail call i32 @setenv(ptr noundef %4, ptr noundef %5, i32 noundef 1) #38, !noalias !513
  %7 = icmp eq i32 %6, 0
  br i1 %7, label %8, label %9

8:                                                ; preds = %3
  store ptr null, ptr %0, align 8, !tbaa !89, !alias.scope !516
  br label %_ZN5arrow8internal9SetEnvVarEPKcS2_.exit

9:                                                ; preds = %3
  tail call void @_ZN5arrow6Status8FromArgsIJRA36_KcEEES0_NS_10StatusCodeEDpOT_(ptr dead_on_unwind writable sret(%"class.arrow::Status") align 8 %0, i8 noundef signext 4, ptr noundef nonnull align 1 dereferenceable(36) @.str.21)
  br label %_ZN5arrow8internal9SetEnvVarEPKcS2_.exit

_ZN5arrow8internal9SetEnvVarEPKcS2_.exit:         ; preds = %8, %9
  ret void
}